; Function Attrs: null_pointer_is_valid sspstrong uwtable
define internal fastcc noundef i32 @MIMO_UL_IE(ptr noundef %0, ptr noundef %1, i32 noundef %2, i32 noundef range(i32 2, 33) %3, ptr noundef %4) unnamed_addr #1 {
  %6 = sdiv i32 %2, 2
  %7 = and i32 %2, 1
  %8 = add nuw nsw i32 %3, %7
  %9 = add nuw nsw i32 %8, 1
  %10 = lshr i32 %9, 1
  %11 = load i32, ptr @ett_299, align 4
  %12 = tail call ptr @proto_tree_add_subtree(ptr noundef %0, ptr noundef %4, i32 noundef %6, i32 noundef %10, i32 noundef %11, ptr noundef null, ptr noundef nonnull @.str.553)
  %.not = icmp eq i32 %7, 0
  %13 = tail call zeroext i8 @tvb_get_uint8(ptr noundef %4, i32 noundef %6)
  %14 = and i8 %13, 15
  %15 = lshr i8 %13, 4
  %.in = select i1 %.not, i8 %15, i8 %14
  %16 = zext nneg i8 %.in to i32
  %17 = load i32, ptr @hf_ulmap_ie_diuc_ext, align 4
  %18 = tail call ptr @proto_tree_add_uint(ptr noundef %12, i32 noundef %17, ptr noundef %4, i32 noundef %6, i32 noundef 1, i32 noundef %16)
  %19 = add i32 %2, 1
  br i1 %.not, label %20, label %24

20:                                               ; preds = %5
  %21 = sdiv i32 %19, 2
  %22 = tail call zeroext i8 @tvb_get_uint8(ptr noundef %4, i32 noundef %21)
  %23 = and i8 %22, 15
  br label %28

24:                                               ; preds = %5
  %25 = ashr exact i32 %19, 1
  %26 = tail call zeroext i8 @tvb_get_uint8(ptr noundef %4, i32 noundef %25)
  %27 = lshr i8 %26, 4
  %.pre = ashr exact i32 %19, 1
  br label %28

28:                                               ; preds = %24, %20
  %.pre-phi = phi i32 [ %.pre, %24 ], [ %21, %20 ]
  %.in35 = phi i8 [ %27, %24 ], [ %23, %20 ]
  %29 = zext nneg i8 %.in35 to i32
  %30 = load i32, ptr @hf_ulmap_ie_length, align 4
  %31 = tail call ptr @proto_tree_add_uint(ptr noundef %12, i32 noundef %30, ptr noundef %4, i32 noundef %.pre-phi, i32 noundef 1, i32 noundef %29)
  %32 = add i32 %2, 2
  %33 = sdiv i32 %32, 2
  %34 = add nsw i32 %8, -1
  %35 = lshr i32 %34, 1
  %36 = tail call ptr @proto_tree_add_expert(ptr noundef %12, ptr noundef %1, ptr noundef nonnull @ei_ulmap_not_implemented, ptr noundef %4, i32 noundef %33, i32 noundef %35)
  ret i32 %32
}